target datalayout = "e-m:e-p270:32:32-p271:32:32-p272:64:64-i64:64-i128:128-f80:128-n8:16:32:64-S128"
target triple = "x86_64-pc-linux-gnu"

%struct.SDL_Surface = type { i32, i32, i32, i32, i32, ptr, i32, ptr, i32, i32, ptr, i32, ptr, i32, ptr, i32, %struct.SDL_Rect, %struct.SDL_BlitMap }
%struct.SDL_Rect = type { i32, i32, i32, i32 }
%struct.SDL_BlitMap = type { i32, ptr, ptr, %struct.SDL_BlitInfo, i32, i32 }
%struct.SDL_BlitInfo = type { ptr, ptr, i32, i32, i32, i32, ptr, ptr, i32, i32, i32, i32, ptr, ptr, ptr, ptr, ptr, ptr, i32, i32, i8, i8, i8, i8 }
%struct.SDL_Palette = type { i32, ptr, i32, i32 }

@SDL_surface_magic = internal global i8 0, align 1
@.str = private unnamed_addr constant [26 x i8] c"Parameter '%s' is invalid\00", align 1
@.str.5 = private unnamed_addr constant [8 x i8] c"surface\00", align 1
@.str.9 = private unnamed_addr constant [79 x i8] c"SDL_SetSurfacePalette() passed a palette that doesn't match the surface format\00", align 1

; Function Attrs: nounwind uwtable
define hidden zeroext i1 @SDL_SurfaceValid(ptr noundef %0) #0 {
  %2 = alloca ptr, align 8
  store ptr %0, ptr %2, align 8
  %3 = load ptr, ptr %2, align 8
  %4 = icmp ne ptr %3, null
  br i1 %4, label %5, label %10

5:                                                ; preds = %1
  %6 = load ptr, ptr %2, align 8
  %7 = getelementptr inbounds nuw %struct.SDL_Surface, ptr %6, i32 0, i32 7
  %8 = load ptr, ptr %7, align 8
  %9 = icmp eq ptr %8, @SDL_surface_magic
  br label %10

10:                                               ; preds = %5, %1
  %11 = phi i1 [ false, %1 ], [ %9, %5 ]
  ret i1 %11
}

; Function Attrs: nounwind uwtable
define hidden zeroext i1 @SDL_SetSurfacePalette_REAL(ptr noundef %0, ptr noundef %1) #0 {
  %3 = alloca i1, align 1
  %4 = alloca ptr, align 8
  %5 = alloca ptr, align 8
  store ptr %0, ptr %4, align 8
  store ptr %1, ptr %5, align 8
  %6 = load ptr, ptr %4, align 8
  %7 = call zeroext i1 @SDL_SurfaceValid(ptr noundef %6)
  br i1 %7, label %10, label %8

8:                                                ; preds = %2
  %9 = call zeroext i1 (ptr, ...) @SDL_SetError_REAL(ptr noundef @.str, ptr noundef @.str.5)
  store i1 %9, ptr %3, align 1
  br label %75

10:                                               ; preds = %2
  %11 = load ptr, ptr %5, align 8
  %12 = icmp ne ptr %11, null
  br i1 %12, label %13, label %41

13:                                               ; preds = %10
  %14 = load ptr, ptr %5, align 8
  %15 = getelementptr inbounds nuw %struct.SDL_Palette, ptr %14, i32 0, i32 0
  %16 = load i32, ptr %15, align 8
  %17 = load ptr, ptr %4, align 8
  %18 = getelementptr inbounds nuw %struct.SDL_Surface, ptr %17, i32 0, i32 1
  %19 = load i32, ptr %18, align 4
  %20 = icmp ne i32 %19, 0
  br i1 %20, label %21, label %29

21:                                               ; preds = %13
  %22 = load ptr, ptr %4, align 8
  %23 = getelementptr inbounds nuw %struct.SDL_Surface, ptr %22, i32 0, i32 1
  %24 = load i32, ptr %23, align 4
  %25 = lshr i32 %24, 28
  %26 = and i32 %25, 15
  %27 = icmp ne i32 %26, 1
  br i1 %27, label %28, label %29

28:                                               ; preds = %21
  br label %35

29:                                               ; preds = %21, %13
  %30 = load ptr, ptr %4, align 8
  %31 = getelementptr inbounds nuw %struct.SDL_Surface, ptr %30, i32 0, i32 1
  %32 = load i32, ptr %31, align 4
  %33 = lshr i32 %32, 8
  %34 = and i32 %33, 255
  br label %35

35:                                               ; preds = %29, %28
  %36 = phi i32 [ 0, %28 ], [ %34, %29 ]
  %37 = shl i32 1, %36
  %38 = icmp sgt i32 %16, %37
  br i1 %38, label %39, label %41

39:                                               ; preds = %35
  %40 = call zeroext i1 (ptr, ...) @SDL_SetError_REAL(ptr noundef @.str.9)
  store i1 %40, ptr %3, align 1
  br label %75

41:                                               ; preds = %35, %10
  %42 = load ptr, ptr %5, align 8
  %43 = load ptr, ptr %4, align 8
  %44 = getelementptr inbounds nuw %struct.SDL_Surface, ptr %43, i32 0, i32 12
  %45 = load ptr, ptr %44, align 8
  %46 = icmp ne ptr %42, %45
  br i1 %46, label %47, label %72

47:                                               ; preds = %41
  %48 = load ptr, ptr %4, align 8
  %49 = getelementptr inbounds nuw %struct.SDL_Surface, ptr %48, i32 0, i32 12
  %50 = load ptr, ptr %49, align 8
  %51 = icmp ne ptr %50, null
  br i1 %51, label %52, label %56

52:                                               ; preds = %47
  %53 = load ptr, ptr %4, align 8
  %54 = getelementptr inbounds nuw %struct.SDL_Surface, ptr %53, i32 0, i32 12
  %55 = load ptr, ptr %54, align 8
  call void @SDL_DestroyPalette_REAL(ptr noundef %55)
  br label %56

56:                                               ; preds = %52, %47
  %57 = load ptr, ptr %5, align 8
  %58 = load ptr, ptr %4, align 8
  %59 = getelementptr inbounds nuw %struct.SDL_Surface, ptr %58, i32 0, i32 12
  store ptr %57, ptr %59, align 8
  %60 = load ptr, ptr %4, align 8
  %61 = getelementptr inbounds nuw %struct.SDL_Surface, ptr %60, i32 0, i32 12
  %62 = load ptr, ptr %61, align 8
  %63 = icmp ne ptr %62, null
  br i1 %63, label %64, label %71

64:                                               ; preds = %56
  %65 = load ptr, ptr %4, align 8
  %66 = getelementptr inbounds nuw %struct.SDL_Surface, ptr %65, i32 0, i32 12
  %67 = load ptr, ptr %66, align 8
  %68 = getelementptr inbounds nuw %struct.SDL_Palette, ptr %67, i32 0, i32 3
  %69 = load i32, ptr %68, align 4
  %70 = add nsw i32 %69, 1
  store i32 %70, ptr %68, align 4
  br label %71

71:                                               ; preds = %64, %56
  br label %72

72:                                               ; preds = %71, %41
  %73 = load ptr, ptr %4, align 8
  %74 = getelementptr inbounds nuw %struct.SDL_Surface, ptr %73, i32 0, i32 17
  call void @SDL_InvalidateMap(ptr noundef %74)
  store i1 true, ptr %3, align 1
  br label %75

75:                                               ; preds = %72, %39, %8
  %76 = load i1, ptr %3, align 1
  ret i1 %76
}