; Function Attrs: nounwind uwtable
define hidden zeroext i1 @SDL_SetSurfacePalette_REAL(ptr noundef %0, ptr noundef %1) local_unnamed_addr #2 {
  %.not.i = icmp eq ptr %0, null
  br i1 %.not.i, label %SDL_SurfaceValid.exit.thread, label %SDL_SurfaceValid.exit

SDL_SurfaceValid.exit:                            ; preds = %2
  %3 = getelementptr inbounds nuw i8, ptr %0, i64 40
  %4 = load ptr, ptr %3, align 8
  %5 = icmp eq ptr %4, @SDL_surface_magic
  br i1 %5, label %7, label %SDL_SurfaceValid.exit.thread

SDL_SurfaceValid.exit.thread:                     ; preds = %2, %SDL_SurfaceValid.exit
  %6 = tail call zeroext i1 (ptr, ...) @SDL_SetError_REAL(ptr noundef nonnull @.str, ptr noundef nonnull @.str.5) #10
  br label %31

7:                                                ; preds = %SDL_SurfaceValid.exit
  %.not = icmp eq ptr %1, null
  br i1 %.not, label %19, label %8

8:                                                ; preds = %7
  %9 = load i32, ptr %1, align 8
  %10 = getelementptr inbounds nuw i8, ptr %0, i64 4
  %11 = load i32, ptr %10, align 4
  %.mask = and i32 %11, -268435456
  %.not20 = icmp eq i32 %.mask, 268435456
  %12 = lshr i32 %11, 8
  %13 = and i32 %12, 255
  %14 = shl nuw i32 1, %13
  %15 = select i1 %.not20, i32 %14, i32 1
  %16 = icmp sgt i32 %9, %15
  br i1 %16, label %17, label %19

17:                                               ; preds = %8
  %18 = tail call zeroext i1 (ptr, ...) @SDL_SetError_REAL(ptr noundef nonnull @.str.9) #10
  br label %31

19:                                               ; preds = %8, %7
  %20 = getelementptr inbounds nuw i8, ptr %0, i64 72
  %21 = load ptr, ptr %20, align 8
  %.not21 = icmp eq ptr %1, %21
  br i1 %.not21, label %29, label %22

22:                                               ; preds = %19
  %.not22 = icmp eq ptr %21, null
  br i1 %.not22, label %24, label %23

23:                                               ; preds = %22
  tail call void @SDL_DestroyPalette_REAL(ptr noundef nonnull %21) #10
  br label %24

24:                                               ; preds = %23, %22
  store ptr %1, ptr %20, align 8
  br i1 %.not, label %29, label %25

25:                                               ; preds = %24
  %26 = getelementptr inbounds nuw i8, ptr %1, i64 20
  %27 = load i32, ptr %26, align 4
  %28 = add nsw i32 %27, 1
  store i32 %28, ptr %26, align 4
  br label %29

29:                                               ; preds = %24, %25, %19
  %30 = getelementptr inbounds nuw i8, ptr %0, i64 120
  tail call void @SDL_InvalidateMap(ptr noundef nonnull %30) #10
  br label %31

31:                                               ; preds = %29, %17, %SDL_SurfaceValid.exit.thread
  %.0 = phi i1 [ %18, %17 ], [ true, %29 ], [ %6, %SDL_SurfaceValid.exit.thread ]
  ret i1 %.0
}